target datalayout = "e-m:e-p270:32:32-p271:32:32-p272:64:64-i64:64-i128:128-f80:128-n8:16:32:64-S128"
target triple = "x86_64-pc-linux-gnu"

%struct.darktable_t = type { %struct.dt_codepath_t, i32, i32, ptr, ptr, ptr, ptr, ptr, ptr, ptr, ptr, ptr, ptr, ptr, ptr, ptr, ptr, ptr, ptr, ptr, ptr, ptr, ptr, ptr, ptr, ptr, ptr, ptr, ptr, ptr, [64 x %struct.dt_pthread_mutex_t], %struct.dt_pthread_mutex_t, %struct.dt_pthread_mutex_t, %struct.dt_pthread_mutex_t, %struct.dt_pthread_mutex_t, %struct.dt_pthread_mutex_t, ptr, ptr, ptr, ptr, ptr, ptr, ptr, ptr, ptr, ptr, ptr, ptr, ptr, %struct.dt_lua_state_t, ptr, double, ptr, i32, [47 x i32], i32, i32, ptr, ptr, %struct.dt_sys_resources_t, %struct.dt_backthumb_t, %struct.dt_gimp_t }
%struct.dt_codepath_t = type { i8, [3 x i8] }
%struct.dt_pthread_mutex_t = type { %union.pthread_mutex_t }
%union.pthread_mutex_t = type { %struct.__pthread_mutex_s }
%struct.__pthread_mutex_s = type { i32, i32, i32, i32, i32, i16, i16, %struct.__pthread_internal_list }
%struct.__pthread_internal_list = type { ptr, ptr }
%struct.dt_lua_state_t = type { i32 }
%struct.dt_sys_resources_t = type { i64, i64, ptr, ptr, i32 }
%struct.dt_backthumb_t = type { double, double, i32, i32, i32, i32 }
%struct.dt_gimp_t = type { i32, ptr, ptr, i32, i32 }
%struct.dt_view_manager_t = type { ptr, ptr, ptr, %struct.dt_history_copy_item_t, %struct.anon, %struct.dt_act_on_cache_t, %struct.dt_act_on_cache_t, %struct.anon.0, %struct.anon.1, ptr, ptr, ptr, ptr, ptr, %struct.anon.2 }
%struct.dt_history_copy_item_t = type { ptr, ptr, i32, i32, i32 }
%struct.anon = type { ptr, ptr, ptr, i32, i32 }
%struct.dt_act_on_cache_t = type { ptr, i32, i32, i32, i32, ptr, i32, i32 }
%struct.anon.0 = type { ptr, ptr, ptr, ptr, ptr, ptr }
%struct.anon.1 = type { i32, i32, i32 }
%struct.anon.2 = type { %struct.anon.3, %struct.anon.4, %struct.anon.5, %struct.anon.6, %struct.anon.7, %struct.anon.8, %struct.anon.9, %struct.anon.10, %struct.anon.11, %struct.anon.12, %struct.anon.13, %struct.anon.14 }
%struct.anon.3 = type { ptr, ptr }
%struct.anon.4 = type { ptr, ptr }
%struct.anon.5 = type { ptr, ptr, ptr, ptr }
%struct.anon.6 = type { ptr, ptr }
%struct.anon.7 = type { ptr }
%struct.anon.8 = type { ptr, ptr, ptr, ptr, ptr }
%struct.anon.9 = type { ptr }
%struct.anon.10 = type { ptr, ptr }
%struct.anon.11 = type { ptr, ptr, ptr, ptr, ptr, ptr, ptr, ptr, ptr, ptr, ptr, ptr }
%struct.anon.12 = type { ptr, ptr, ptr, ptr }
%struct.anon.13 = type { ptr }
%struct.anon.14 = type { ptr, ptr }
%struct._GSList = type { ptr, ptr }

@darktable = external global %struct.darktable_t, align 8
@.str.1 = private unnamed_addr constant [41 x i8] c"[sql] %s:%d, function %s(): prepare \22%s\22\00", align 1
@.str.2 = private unnamed_addr constant [117 x i8] c"generated/home/dtcxzyw/WorkSpace/Projects/compilers/llvm-opt-benchmark/bench/darktable/darktable/src/common/act_on.c\00", align 1
@stderr = external global ptr, align 8
@.str.3 = private unnamed_addr constant [53 x i8] c"sqlite3 error: %s:%d, function %s(), query \22%s\22: %s\0A\00", align 1
@__FUNCTION__.dt_act_on_get_main_image = private unnamed_addr constant [25 x i8] c"dt_act_on_get_main_image\00", align 1
@.str.12 = private unnamed_addr constant [123 x i8] c"SELECT s.imgid FROM main.selected_images as s, memory.collected_images as c WHERE s.imgid=c.imgid ORDER BY c.rowid LIMIT 1\00", align 1
@.str.13 = private unnamed_addr constant [37 x i8] c"[images to act on] single image : %d\00", align 1

; Function Attrs: nounwind uwtable
define i32 @dt_act_on_get_main_image() #0 {
  %1 = alloca i32, align 4
  %2 = alloca i32, align 4
  %3 = alloca ptr, align 8
  %4 = alloca i32, align 4
  call void @llvm.lifetime.start.p0(i64 4, ptr %1) #6
  store i32 0, ptr %1, align 4, !tbaa !6
  call void @llvm.lifetime.start.p0(i64 4, ptr %2) #6
  %5 = call i32 (...) @dt_control_get_mouse_over_id()
  store i32 %5, ptr %2, align 4, !tbaa !6
  %6 = load i32, ptr %2, align 4, !tbaa !6
  %7 = icmp sgt i32 %6, 0
  br i1 %7, label %8, label %10

8:                                                ; preds = %0
  %9 = load i32, ptr %2, align 4, !tbaa !6
  store i32 %9, ptr %1, align 4, !tbaa !6
  br label %69

10:                                               ; preds = %0
  %11 = load ptr, ptr getelementptr inbounds nuw (%struct.darktable_t, ptr @darktable, i32 0, i32 11), align 8, !tbaa !10
  %12 = getelementptr inbounds nuw %struct.dt_view_manager_t, ptr %11, i32 0, i32 2
  %13 = load ptr, ptr %12, align 8, !tbaa !79
  %14 = icmp ne ptr %13, null
  br i1 %14, label %15, label %23

15:                                               ; preds = %10
  %16 = load ptr, ptr getelementptr inbounds nuw (%struct.darktable_t, ptr @darktable, i32 0, i32 11), align 8, !tbaa !10
  %17 = getelementptr inbounds nuw %struct.dt_view_manager_t, ptr %16, i32 0, i32 2
  %18 = load ptr, ptr %17, align 8, !tbaa !79
  %19 = getelementptr inbounds nuw %struct._GSList, ptr %18, i32 0, i32 0
  %20 = load ptr, ptr %19, align 8, !tbaa !97
  %21 = ptrtoint ptr %20 to i64
  %22 = trunc i64 %21 to i32
  store i32 %22, ptr %1, align 4, !tbaa !6
  br label %68

23:                                               ; preds = %10
  call void @llvm.lifetime.start.p0(i64 8, ptr %3) #6
  br label %24

24:                                               ; preds = %23
  br label %25

25:                                               ; preds = %24
  %26 = load i32, ptr getelementptr inbounds nuw (%struct.darktable_t, ptr @darktable, i32 0, i32 2), align 8, !tbaa !69
  %27 = and i32 256, %26
  %28 = icmp ne i32 %27, 0
  br i1 %28, label %29, label %35

29:                                               ; preds = %25
  %30 = load i32, ptr getelementptr inbounds nuw (%struct.darktable_t, ptr @darktable, i32 0, i32 2), align 8, !tbaa !69
  %31 = xor i32 %30, -1
  %32 = and i32 0, %31
  %33 = icmp ne i32 %32, 0
  br i1 %33, label %35, label %34

34:                                               ; preds = %29
  call void (ptr, ...) @dt_print_ext(ptr noundef @.str.1, ptr noundef @.str.2, i32 noundef 434, ptr noundef @__FUNCTION__.dt_act_on_get_main_image, ptr noundef @.str.12)
  br label %35

35:                                               ; preds = %34, %29, %25
  br label %36

36:                                               ; preds = %35
  br label %37

37:                                               ; preds = %36
  call void @llvm.lifetime.start.p0(i64 4, ptr %4) #6
  %38 = load ptr, ptr getelementptr inbounds nuw (%struct.darktable_t, ptr @darktable, i32 0, i32 18), align 8, !tbaa !70
  %39 = call ptr @dt_database_get(ptr noundef %38)
  %40 = call i32 @sqlite3_prepare_v2(ptr noundef %39, ptr noundef @.str.12, i32 noundef -1, ptr noundef %3, ptr noundef null)
  store i32 %40, ptr %4, align 4, !tbaa !6
  %41 = load i32, ptr %4, align 4, !tbaa !6
  %42 = icmp ne i32 %41, 0
  br i1 %42, label %43, label %49

43:                                               ; preds = %37
  %44 = load ptr, ptr @stderr, align 8, !tbaa !71
  %45 = load ptr, ptr getelementptr inbounds nuw (%struct.darktable_t, ptr @darktable, i32 0, i32 18), align 8, !tbaa !70
  %46 = call ptr @dt_database_get(ptr noundef %45)
  %47 = call ptr @sqlite3_errmsg(ptr noundef %46)
  %48 = call i32 (ptr, ptr, ...) @fprintf(ptr noundef %44, ptr noundef @.str.3, ptr noundef @.str.2, i32 noundef 434, ptr noundef @__FUNCTION__.dt_act_on_get_main_image, ptr noundef @.str.12, ptr noundef %47) #6
  br label %49

49:                                               ; preds = %43, %37
  call void @llvm.lifetime.end.p0(i64 4, ptr %4) #6
  br label %50

50:                                               ; preds = %49
  br label %51

51:                                               ; preds = %50
  %52 = load ptr, ptr %3, align 8, !tbaa !73
  %53 = icmp ne ptr %52, null
  br i1 %53, label %54, label %61

54:                                               ; preds = %51
  %55 = load ptr, ptr %3, align 8, !tbaa !73
  %56 = call i32 @sqlite3_step(ptr noundef %55)
  %57 = icmp eq i32 %56, 100
  br i1 %57, label %58, label %61

58:                                               ; preds = %54
  %59 = load ptr, ptr %3, align 8, !tbaa !73
  %60 = call i32 @sqlite3_column_int(ptr noundef %59, i32 noundef 0)
  store i32 %60, ptr %1, align 4, !tbaa !6
  br label %61

61:                                               ; preds = %58, %54, %51
  %62 = load ptr, ptr %3, align 8, !tbaa !73
  %63 = icmp ne ptr %62, null
  br i1 %63, label %64, label %67

64:                                               ; preds = %61
  %65 = load ptr, ptr %3, align 8, !tbaa !73
  %66 = call i32 @sqlite3_finalize(ptr noundef %65)
  br label %67

67:                                               ; preds = %64, %61
  call void @llvm.lifetime.end.p0(i64 8, ptr %3) #6
  br label %68

68:                                               ; preds = %67, %15
  br label %69

69:                                               ; preds = %68, %8
  %70 = load i32, ptr getelementptr inbounds nuw (%struct.darktable_t, ptr @darktable, i32 0, i32 2), align 8, !tbaa !69
  %71 = and i32 %70, 4194304
  %72 = icmp eq i32 %71, 4194304
  br i1 %72, label %73, label %88

73:                                               ; preds = %69
  br label %74

74:                                               ; preds = %73
  %75 = load i32, ptr getelementptr inbounds nuw (%struct.darktable_t, ptr @darktable, i32 0, i32 2), align 8, !tbaa !69
  %76 = and i32 4194304, %75
  %77 = icmp ne i32 %76, 0
  br i1 %77, label %78, label %85

78:                                               ; preds = %74
  %79 = load i32, ptr getelementptr inbounds nuw (%struct.darktable_t, ptr @darktable, i32 0, i32 2), align 8, !tbaa !69
  %80 = xor i32 %79, -1
  %81 = and i32 0, %80
  %82 = icmp ne i32 %81, 0
  br i1 %82, label %85, label %83

83:                                               ; preds = %78
  %84 = load i32, ptr %1, align 4, !tbaa !6
  call void (ptr, ...) @dt_print_ext(ptr noundef @.str.13, i32 noundef %84)
  br label %85

85:                                               ; preds = %83, %78, %74
  br label %86

86:                                               ; preds = %85
  br label %87

87:                                               ; preds = %86
  br label %88

88:                                               ; preds = %87, %69
  %89 = load i32, ptr %1, align 4, !tbaa !6
  call void @llvm.lifetime.end.p0(i64 4, ptr %2) #6
  call void @llvm.lifetime.end.p0(i64 4, ptr %1) #6
  ret i32 %89
}