; Function Attrs: nounwind uwtable
define i32 @dt_act_on_get_main_image() local_unnamed_addr #0 {
  %1 = alloca ptr, align 8
  %2 = tail call i32 (...) @dt_control_get_mouse_over_id() #7
  %3 = icmp sgt i32 %2, 0
  br i1 %3, label %37, label %4

4:                                                ; preds = %0
  %5 = load ptr, ptr getelementptr inbounds nuw (i8, ptr @darktable, i64 80), align 8, !tbaa !74
  %6 = getelementptr inbounds nuw i8, ptr %5, i64 16
  %7 = load ptr, ptr %6, align 8, !tbaa !75
  %.not = icmp eq ptr %7, null
  br i1 %.not, label %12, label %8

8:                                                ; preds = %4
  %9 = load ptr, ptr %7, align 8, !tbaa !92
  %10 = ptrtoint ptr %9 to i64
  %11 = trunc i64 %10 to i32
  br label %37

12:                                               ; preds = %4
  call void @llvm.lifetime.start.p0(i64 8, ptr nonnull %1) #7
  %13 = load i32, ptr getelementptr inbounds nuw (i8, ptr @darktable, i64 8), align 8, !tbaa !64
  %14 = and i32 %13, 256
  %.not9 = icmp eq i32 %14, 0
  br i1 %.not9, label %16, label %15

15:                                               ; preds = %12
  tail call void (ptr, ...) @dt_print_ext(ptr noundef nonnull @.str.1, ptr noundef nonnull @.str.2, i32 noundef 434, ptr noundef nonnull @__FUNCTION__.dt_act_on_get_main_image, ptr noundef nonnull @.str.12) #7
  br label %16

16:                                               ; preds = %15, %12
  %17 = load ptr, ptr getelementptr inbounds nuw (i8, ptr @darktable, i64 136), align 8, !tbaa !65
  %18 = tail call ptr @dt_database_get(ptr noundef %17) #7
  %19 = call i32 @sqlite3_prepare_v2(ptr noundef %18, ptr noundef nonnull @.str.12, i32 noundef -1, ptr noundef nonnull %1, ptr noundef null) #7
  %.not10 = icmp eq i32 %19, 0
  br i1 %.not10, label %26, label %20

20:                                               ; preds = %16
  %21 = load ptr, ptr @stderr, align 8, !tbaa !66
  %22 = load ptr, ptr getelementptr inbounds nuw (i8, ptr @darktable, i64 136), align 8, !tbaa !65
  %23 = call ptr @dt_database_get(ptr noundef %22) #7
  %24 = call ptr @sqlite3_errmsg(ptr noundef %23) #7
  %25 = call i32 (ptr, ptr, ...) @fprintf(ptr noundef %21, ptr noundef nonnull @.str.3, ptr noundef nonnull @.str.2, i32 noundef 434, ptr noundef nonnull @__FUNCTION__.dt_act_on_get_main_image, ptr noundef nonnull @.str.12, ptr noundef %24) #8
  br label %26

26:                                               ; preds = %20, %16
  %27 = load ptr, ptr %1, align 8, !tbaa !68
  %.not11 = icmp eq ptr %27, null
  br i1 %.not11, label %.thread, label %28

28:                                               ; preds = %26
  %29 = call i32 @sqlite3_step(ptr noundef nonnull %27) #7
  %30 = icmp eq i32 %29, 100
  br i1 %30, label %31, label %34

31:                                               ; preds = %28
  %32 = load ptr, ptr %1, align 8, !tbaa !68
  %33 = call i32 @sqlite3_column_int(ptr noundef %32, i32 noundef 0) #7
  br label %34

34:                                               ; preds = %31, %28
  %.1.ph = phi i32 [ 0, %28 ], [ %33, %31 ]
  %.pr = load ptr, ptr %1, align 8, !tbaa !68
  %.not12 = icmp eq ptr %.pr, null
  br i1 %.not12, label %.thread, label %35

35:                                               ; preds = %34
  %36 = call i32 @sqlite3_finalize(ptr noundef nonnull %.pr) #7
  br label %.thread

.thread:                                          ; preds = %26, %35, %34
  %.116 = phi i32 [ %.1.ph, %35 ], [ %.1.ph, %34 ], [ 0, %26 ]
  call void @llvm.lifetime.end.p0(i64 8, ptr nonnull %1) #7
  br label %37

37:                                               ; preds = %0, %8, %.thread
  %.0 = phi i32 [ %11, %8 ], [ %.116, %.thread ], [ %2, %0 ]
  %38 = load i32, ptr getelementptr inbounds nuw (i8, ptr @darktable, i64 8), align 8, !tbaa !64
  %39 = and i32 %38, 4194304
  %.not13 = icmp eq i32 %39, 0
  br i1 %.not13, label %41, label %40

40:                                               ; preds = %37
  call void (ptr, ...) @dt_print_ext(ptr noundef nonnull @.str.13, i32 noundef %.0) #7
  br label %41

41:                                               ; preds = %40, %37
  ret i32 %.0
}